; Function Attrs: mustprogress uwtable
define void @_ZN3net14StrikeRegister28ValidateStrikeRegisterConfigEj(i32 noundef %0) local_unnamed_addr #0 align 2 personality ptr @__gxx_personality_v0 {
  %2 = alloca i32, align 4
  %3 = alloca i32, align 4
  %4 = alloca %"class.logging::LogMessage", align 8
  %5 = alloca i32, align 4
  %6 = alloca %"class.logging::LogMessage", align 8
  store i32 %0, ptr %2, align 4, !tbaa !3
  call void @llvm.lifetime.start.p0(i64 4, ptr nonnull %3) #25
  store i32 8388608, ptr %3, align 4, !tbaa !3
  %7 = icmp ult i32 %0, 8388608
  br i1 %7, label %_ZN7logging11CheckLTImplIjjEEPNSt7__cxx1112basic_stringIcSt11char_traitsIcESaIcEEERKT_RKT0_PKc.exit.thread, label %_ZN7logging11CheckLTImplIjjEEPNSt7__cxx1112basic_stringIcSt11char_traitsIcESaIcEEERKT_RKT0_PKc.exit

_ZN7logging11CheckLTImplIjjEEPNSt7__cxx1112basic_stringIcSt11char_traitsIcESaIcEEERKT_RKT0_PKc.exit.thread: ; preds = %1
  call void @llvm.lifetime.end.p0(i64 4, ptr nonnull %3) #25
  br label %10

_ZN7logging11CheckLTImplIjjEEPNSt7__cxx1112basic_stringIcSt11char_traitsIcESaIcEEERKT_RKT0_PKc.exit: ; preds = %1
  %8 = call noundef ptr @_ZN7logging17MakeCheckOpStringIjjEEPNSt7__cxx1112basic_stringIcSt11char_traitsIcESaIcEEERKT_RKT0_PKc(ptr noundef nonnull align 4 dereferenceable(4) %2, ptr noundef nonnull align 4 dereferenceable(4) %3, ptr noundef nonnull @.str)
  call void @llvm.lifetime.end.p0(i64 4, ptr nonnull %3) #25
  %.not.i = icmp eq ptr %8, null
  br i1 %.not.i, label %10, label %9

9:                                                ; preds = %_ZN7logging11CheckLTImplIjjEEPNSt7__cxx1112basic_stringIcSt11char_traitsIcESaIcEEERKT_RKT0_PKc.exit
  call void @llvm.lifetime.start.p0(i64 408, ptr nonnull %4) #25
  call void @_ZN7logging10LogMessageC1EPKciPNSt7__cxx1112basic_stringIcSt11char_traitsIcESaIcEEE(ptr noundef nonnull align 8 dereferenceable(404) %4, ptr noundef nonnull @.str.1, i32 noundef 86, ptr noundef nonnull %8)
  call void @_ZN7logging10LogMessageD1Ev(ptr noundef nonnull align 8 dereferenceable(404) %4) #25
  call void @llvm.lifetime.end.p0(i64 408, ptr nonnull %4) #25
  br label %10

10:                                               ; preds = %_ZN7logging11CheckLTImplIjjEEPNSt7__cxx1112basic_stringIcSt11char_traitsIcESaIcEEERKT_RKT0_PKc.exit.thread, %_ZN7logging11CheckLTImplIjjEEPNSt7__cxx1112basic_stringIcSt11char_traitsIcESaIcEEERKT_RKT0_PKc.exit, %9
  call void @llvm.lifetime.start.p0(i64 4, ptr nonnull %5) #25
  store i32 1, ptr %5, align 4, !tbaa !3
  %11 = load i32, ptr %2, align 4, !tbaa !3
  %12 = icmp ugt i32 %11, 1
  br i1 %12, label %_ZN7logging11CheckGTImplIjjEEPNSt7__cxx1112basic_stringIcSt11char_traitsIcESaIcEEERKT_RKT0_PKc.exit.thread, label %_ZN7logging11CheckGTImplIjjEEPNSt7__cxx1112basic_stringIcSt11char_traitsIcESaIcEEERKT_RKT0_PKc.exit

_ZN7logging11CheckGTImplIjjEEPNSt7__cxx1112basic_stringIcSt11char_traitsIcESaIcEEERKT_RKT0_PKc.exit.thread: ; preds = %10
  call void @llvm.lifetime.end.p0(i64 4, ptr nonnull %5) #25
  br label %15

_ZN7logging11CheckGTImplIjjEEPNSt7__cxx1112basic_stringIcSt11char_traitsIcESaIcEEERKT_RKT0_PKc.exit: ; preds = %10
  %13 = call noundef ptr @_ZN7logging17MakeCheckOpStringIjjEEPNSt7__cxx1112basic_stringIcSt11char_traitsIcESaIcEEERKT_RKT0_PKc(ptr noundef nonnull align 4 dereferenceable(4) %2, ptr noundef nonnull align 4 dereferenceable(4) %5, ptr noundef nonnull @.str.2)
  call void @llvm.lifetime.end.p0(i64 4, ptr nonnull %5) #25
  %.not.i2 = icmp eq ptr %13, null
  br i1 %.not.i2, label %15, label %14

14:                                               ; preds = %_ZN7logging11CheckGTImplIjjEEPNSt7__cxx1112basic_stringIcSt11char_traitsIcESaIcEEERKT_RKT0_PKc.exit
  call void @llvm.lifetime.start.p0(i64 408, ptr nonnull %6) #25
  call void @_ZN7logging10LogMessageC1EPKciPNSt7__cxx1112basic_stringIcSt11char_traitsIcESaIcEEE(ptr noundef nonnull align 8 dereferenceable(404) %6, ptr noundef nonnull @.str.1, i32 noundef 87, ptr noundef nonnull %13)
  call void @_ZN7logging10LogMessageD1Ev(ptr noundef nonnull align 8 dereferenceable(404) %6) #25
  call void @llvm.lifetime.end.p0(i64 408, ptr nonnull %6) #25
  br label %15

15:                                               ; preds = %_ZN7logging11CheckGTImplIjjEEPNSt7__cxx1112basic_stringIcSt11char_traitsIcESaIcEEERKT_RKT0_PKc.exit.thread, %_ZN7logging11CheckGTImplIjjEEPNSt7__cxx1112basic_stringIcSt11char_traitsIcESaIcEEERKT_RKT0_PKc.exit, %14
  ret void
}